Certificate:
    Data:
        Version: 3 (0x2)
        Serial Number: 4096 (0x1000)
        Signature Algorithm: sha256WithRSAEncryption
        Issuer: C=DE, ST=Some-State, O=Internet Widgits Pty Ltd
        Validity
            Not Before: Aug  3 08:25:27 2024 GMT
            Not After : Aug  3 08:25:27 2027 GMT
        Subject: C=DE, ST=Some-State, O=Internet Widgits Pty Ltd, CN=passkeys.demo
        Subject Public Key Info:
            Public Key Algorithm: rsaEncryption
                Public-Key: (2048 bit)
                Modulus:
                    00:d3:c6:ba:16:9a:92:e7:1a:ce:77:73:76:a3:93:
                    f2:dd:d5:15:f2:47:3c:a1:3b:ad:6a:cd:42:e1:78:
                    21:cb:d1:93:9e:a3:59:48:f2:45:99:c2:5f:5a:b2:
                    94:d5:1a:f9:7e:76:c5:e7:43:13:b3:e2:43:ae:d7:
                    28:5f:9b:ec:2a:62:e0:c7:da:74:a6:ef:85:61:31:
                    d8:f7:1c:19:16:71:63:80:55:e5:1e:a7:3c:93:90:
                    c6:93:d8:cc:60:b6:96:1c:51:eb:f7:30:a9:d8:57:
                    12:d0:7e:a2:3a:10:8e:39:92:5e:8e:c6:b5:00:e5:
                    c6:e8:6a:21:4d:ef:fe:17:01:3c:b3:95:e7:e5:ee:
                    fb:b3:ae:0a:57:a6:6f:56:52:17:31:c4:8c:67:dc:
                    e4:cd:0c:19:ec:b2:e6:15:14:08:db:43:fd:64:5a:
                    d8:25:e8:8b:5a:29:e3:e0:ad:5e:8d:42:2f:6c:34:
                    7b:7e:aa:d2:d5:fd:11:f0:59:a9:cd:fd:42:3e:8d:
                    67:7a:ee:a9:e8:35:6a:08:a7:fd:25:68:00:9d:f0:
                    5d:0d:36:fd:71:c4:a3:7a:09:c8:f1:68:4a:a0:97:
                    9f:97:fc:7b:95:9b:44:4b:9a:e0:18:5f:c7:d7:e2:
                    4c:3b:e6:8e:b1:7b:2c:b8:32:08:12:9f:65:8e:91:
                    48:a5
                Exponent: 65537 (0x10001)
        X509v3 extensions:
            X509v3 Subject Key Identifier: 
                D5:47:D9:3E:28:26:18:12:BB:F1:00:20:3F:C3:52:B3:FE:FD:51:64
            X509v3 Basic Constraints: 
                CA:FALSE
            X509v3 Key Usage: critical
                Digital Signature, Key Encipherment
            X509v3 Extended Key Usage: 
                TLS Web Server Authentication, TLS Web Client Authentication
            X509v3 Subject Alternative Name: 
                DNS:passkeys.demo, DNS:passkeys.demo.local, DNS:localhost
            X509v3 Authority Key Identifier: 
                1B:BA:E5:C7:E0:4A:4A:28:24:62:A5:E4:81:EC:7C:45:FC:8E:52:49
    Signature Algorithm: sha256WithRSAEncryption
    Signature Value:
        35:59:b6:af:43:3d:34:d1:41:8d:81:a8:dd:31:7d:0f:de:69:
        12:8d:ef:7e:a9:5a:85:f7:2d:6b:c4:f2:e1:cd:8d:f6:68:41:
        aa:fe:88:05:35:76:de:c1:b0:e1:ed:a8:f6:84:b3:63:93:b6:
        c8:fd:21:11:3c:7f:b7:0d:1f:e8:d6:7f:6d:b2:11:79:16:93:
        76:2e:f0:9c:2d:43:2d:5e:c9:42:37:3a:64:6b:97:e3:ee:99:
        d1:88:d3:89:29:2a:69:9b:b5:86:1e:89:e2:a4:2c:19:1f:48:
        4c:b7:90:2d:fd:8c:82:78:b2:db:4e:1c:0f:3b:83:6a:e7:92:
        21:3d:eb:1e:fa:38:75:52:80:07:96:3f:db:56:d8:1b:ff:12:
        fd:97:eb:cd:57:d9:6c:56:2f:98:ab:af:70:70:67:7b:c1:e6:
        1a:c9:16:6a:86:03:47:a1:a1:d6:90:bf:06:f9:3c:de:f3:ed:
        68:7a:4a:97:8b:5a:6c:60:40:33:eb:59:fc:b4:33:6b:fa:8b:
        74:a7:c5:de:98:ad:1f:24:88:f4:f9:e6:d8:e8:31:e5:8a:6f:
        12:dc:56:c8:a5:88:56:9d:6d:47:88:d8:bf:02:73:1a:16:6e:
        51:95:24:e5:70:87:e5:09:42:f0:63:20:9b:e4:04:70:ec:ba:
        fe:2c:28:48
-----BEGIN CERTIFICATE-----
MIID1jCCAr6gAwIBAgICEAAwDQYJKoZIhvcNAQELBQAwRTELMAkGA1UEBhMCREUx
EzARBgNVBAgMClNvbWUtU3RhdGUxITAfBgNVBAoMGEludGVybmV0IFdpZGdpdHMg
UHR5IEx0ZDAeFw0yNDA4MDMwODI1MjdaFw0yNzA4MDMwODI1MjdaMF0xCzAJBgNV
BAYTAkRFMRMwEQYDVQQIDApTb21lLVN0YXRlMSEwHwYDVQQKDBhJbnRlcm5ldCBX
aWRnaXRzIFB0eSBMdGQxFjAUBgNVBAMMDXBhc3NrZXlzLmRlbW8wggEiMA0GCSqG
SIb3DQEBAQUAA4IBDwAwggEKAoIBAQDTxroWmpLnGs53c3ajk/Ld1RXyRzyhO61q
zULheCHL0ZOeo1lI8kWZwl9aspTVGvl+dsXnQxOz4kOu1yhfm+wqYuDH2nSm74Vh
Mdj3HBkWcWOAVeUepzyTkMaT2MxgtpYcUev3MKnYVxLQfqI6EI45kl6OxrUA5cbo
aiFN7/4XATyzlefl7vuzrgpXpm9WUhcxxIxn3OTNDBnssuYVFAjbQ/1kWtgl6Ita
KePgrV6NQi9sNHt+qtLV/RHwWanN/UI+jWd67qnoNWoIp/0laACd8F0NNv1xxKN6
CcjxaEqgl5+X/HuVm0RLmuAYX8fX4kw75o6xeyy4MggSn2WOkUilAgMBAAGjgbcw
gbQwHQYDVR0OBBYEFNVH2T4oJhgSu/EAID/DUrP+/VFkMAkGA1UdEwQCMAAwDgYD
VR0PAQH/BAQDAgWgMB0GA1UdJQQWMBQGCCsGAQUFBwMBBggrBgEFBQcDAjA4BgNV
HREEMTAvgg1wYXNza2V5cy5kZW1vghNwYXNza2V5cy5kZW1vLmxvY2Fsgglsb2Nh
bGhvc3QwHwYDVR0jBBgwFoAUG7rlx+BKSigkYqXkgex8RfyOUkkwDQYJKoZIhvcN
AQELBQADggEBADVZtq9DPTTRQY2BqN0xfQ/eaRKN736pWoX3LWvE8uHNjfZoQar+
iAU1dt7BsOHtqPaEs2OTtsj9IRE8f7cNH+jWf22yEXkWk3Yu8JwtQy1eyUI3OmRr
l+PumdGI04kpKmmbtYYeieKkLBkfSEy3kC39jIJ4sttOHA87g2rnkiE96x76OHVS
gAeWP9tW2Bv/Ev2X681X2WxWL5irr3BwZ3vB5hrJFmqGA0ehodaQvwb5PN7z7Wh6
SpeLWmxgQDPrWfy0M2v6i3Snxd6YrR8kiPT55tjoMeWKbxLcVsiliFadbUeI2L8C
cxoWblGVJOVwh+UJQvBjIJvkBHDsuv4sKEg=
-----END CERTIFICATE-----
